target datalayout = "e-m:e-p270:32:32-p271:32:32-p272:64:64-i64:64-i128:128-f80:128-n8:16:32:64-S128"
target triple = "x86_64-pc-linux-gnu"

%struct.pg_conn = type { ptr, ptr, ptr, ptr, ptr, ptr, ptr, ptr, ptr, ptr, ptr, ptr, ptr, ptr, ptr, ptr, ptr, ptr, ptr, ptr, ptr, ptr, ptr, ptr, ptr, ptr, ptr, ptr, ptr, ptr, ptr, ptr, ptr, ptr, ptr, ptr, ptr, ptr, ptr, ptr, ptr, ptr, ptr, i8, ptr, i32, %struct.PGNoticeHooks, ptr, i32, i32, i32, i32, i32, [6 x i8], i8, i8, i32, i8, i8, i32, i8, i32, ptr, ptr, i32, i32, ptr, ptr, ptr, ptr, ptr, i32, %struct.SockAddr, %struct.SockAddr, i32, i32, i8, i8, i8, i8, i8, i8, ptr, i8, i32, [1 x ptr], i8, i8, ptr, ptr, i32, i32, i32, i8, i8, i32, i32, ptr, i8, i64, ptr, i64, ptr, i32, i32, ptr, i32, i8, i32, i32, i32, i32, ptr, %struct.pg_prng_state, ptr, i32, i32, i32, i32, ptr, i32, i32, i32, i32, ptr, i32, ptr, i8, ptr, ptr, ptr, i32, i8, i8, i8, i8, i8, i8, i8, i8, %struct.PQExpBufferData, i32, %struct.PQExpBufferData }
%struct.PGNoticeHooks = type { ptr, ptr, ptr, ptr }
%struct.SockAddr = type { %struct.sockaddr_storage, i32 }
%struct.sockaddr_storage = type { i16, [118 x i8], i64 }
%struct.pg_prng_state = type { i64, i64 }
%struct.PQExpBufferData = type { ptr, i64, i64 }

; Function Attrs: nounwind uwtable
define ptr @pqMakeEmptyPGconn() #0 {
  %1 = alloca ptr, align 8
  %2 = alloca ptr, align 8
  %3 = alloca i32, align 4
  %4 = alloca ptr, align 8
  %5 = alloca i32, align 4
  %6 = alloca i64, align 8
  %7 = alloca ptr, align 8
  %8 = alloca ptr, align 8
  call void @llvm.lifetime.start.p0(i64 8, ptr %2) #12
  %9 = call noalias ptr @malloc(i64 noundef 1176) #14
  store ptr %9, ptr %2, align 8
  %10 = load ptr, ptr %2, align 8
  %11 = icmp eq ptr %10, null
  br i1 %11, label %12, label %14

12:                                               ; preds = %0
  %13 = load ptr, ptr %2, align 8
  store ptr %13, ptr %1, align 8
  store i32 1, ptr %3, align 4
  br label %160

14:                                               ; preds = %0
  br label %15

15:                                               ; preds = %14
  call void @llvm.lifetime.start.p0(i64 8, ptr %4) #12
  %16 = load ptr, ptr %2, align 8
  store ptr %16, ptr %4, align 8
  call void @llvm.lifetime.start.p0(i64 4, ptr %5) #12
  store i32 0, ptr %5, align 4
  call void @llvm.lifetime.start.p0(i64 8, ptr %6) #12
  store i64 1176, ptr %6, align 8
  %17 = load ptr, ptr %4, align 8
  %18 = ptrtoint ptr %17 to i64
  %19 = and i64 %18, 7
  %20 = icmp eq i64 %19, 0
  br i1 %20, label %21, label %44

21:                                               ; preds = %15
  %22 = load i64, ptr %6, align 8
  %23 = and i64 %22, 7
  %24 = icmp eq i64 %23, 0
  br i1 %24, label %25, label %44

25:                                               ; preds = %21
  %26 = load i32, ptr %5, align 4
  %27 = icmp eq i32 %26, 0
  br i1 %27, label %28, label %44

28:                                               ; preds = %25
  %29 = load i64, ptr %6, align 8
  %30 = icmp ule i64 %29, 1024
  br i1 %30, label %31, label %44

31:                                               ; preds = %28
  call void @llvm.lifetime.start.p0(i64 8, ptr %7) #12
  %32 = load ptr, ptr %4, align 8
  store ptr %32, ptr %7, align 8
  call void @llvm.lifetime.start.p0(i64 8, ptr %8) #12
  %33 = load ptr, ptr %7, align 8
  %34 = load i64, ptr %6, align 8
  %35 = getelementptr inbounds nuw i8, ptr %33, i64 %34
  store ptr %35, ptr %8, align 8
  br label %36

36:                                               ; preds = %40, %31
  %37 = load ptr, ptr %7, align 8
  %38 = load ptr, ptr %8, align 8
  %39 = icmp ult ptr %37, %38
  br i1 %39, label %40, label %43

40:                                               ; preds = %36
  %41 = load ptr, ptr %7, align 8
  %42 = getelementptr inbounds nuw i64, ptr %41, i32 1
  store ptr %42, ptr %7, align 8
  store i64 0, ptr %41, align 8
  br label %36, !llvm.loop !7

43:                                               ; preds = %36
  call void @llvm.lifetime.end.p0(i64 8, ptr %8) #12
  call void @llvm.lifetime.end.p0(i64 8, ptr %7) #12
  br label %49

44:                                               ; preds = %28, %25, %21, %15
  %45 = load ptr, ptr %4, align 8
  %46 = load i32, ptr %5, align 4
  %47 = trunc i32 %46 to i8
  %48 = load i64, ptr %6, align 8
  call void @llvm.memset.p0.i64(ptr align 1 %45, i8 %47, i64 %48, i1 false)
  br label %49

49:                                               ; preds = %44, %43
  call void @llvm.lifetime.end.p0(i64 8, ptr %6) #12
  call void @llvm.lifetime.end.p0(i64 4, ptr %5) #12
  call void @llvm.lifetime.end.p0(i64 8, ptr %4) #12
  br label %50

50:                                               ; preds = %49
  br label %51

51:                                               ; preds = %50
  %52 = load ptr, ptr %2, align 8
  %53 = getelementptr inbounds nuw %struct.pg_conn, ptr %52, i32 0, i32 46
  %54 = getelementptr inbounds nuw %struct.PGNoticeHooks, ptr %53, i32 0, i32 0
  store ptr @defaultNoticeReceiver, ptr %54, align 8
  %55 = load ptr, ptr %2, align 8
  %56 = getelementptr inbounds nuw %struct.pg_conn, ptr %55, i32 0, i32 46
  %57 = getelementptr inbounds nuw %struct.PGNoticeHooks, ptr %56, i32 0, i32 2
  store ptr @defaultNoticeProcessor, ptr %57, align 8
  %58 = load ptr, ptr %2, align 8
  %59 = getelementptr inbounds nuw %struct.pg_conn, ptr %58, i32 0, i32 50
  store i32 1, ptr %59, align 8
  %60 = load ptr, ptr %2, align 8
  %61 = getelementptr inbounds nuw %struct.pg_conn, ptr %60, i32 0, i32 51
  store i32 0, ptr %61, align 4
  %62 = load ptr, ptr %2, align 8
  %63 = getelementptr inbounds nuw %struct.pg_conn, ptr %62, i32 0, i32 56
  store i32 0, ptr %63, align 4
  %64 = load ptr, ptr %2, align 8
  %65 = getelementptr inbounds nuw %struct.pg_conn, ptr %64, i32 0, i32 52
  store i32 0, ptr %65, align 8
  %66 = load ptr, ptr %2, align 8
  %67 = getelementptr inbounds nuw %struct.pg_conn, ptr %66, i32 0, i32 54
  store i8 0, ptr %67, align 2
  %68 = load ptr, ptr %2, align 8
  %69 = getelementptr inbounds nuw %struct.pg_conn, ptr %68, i32 0, i32 55
  store i8 0, ptr %69, align 1
  %70 = load ptr, ptr %2, align 8
  %71 = getelementptr inbounds nuw %struct.pg_conn, ptr %70, i32 0, i32 106
  store i32 0, ptr %71, align 8
  %72 = load ptr, ptr %2, align 8
  %73 = getelementptr inbounds nuw %struct.pg_conn, ptr %72, i32 0, i32 107
  store i8 0, ptr %73, align 4
  %74 = load ptr, ptr %2, align 8
  %75 = getelementptr inbounds nuw %struct.pg_conn, ptr %74, i32 0, i32 108
  store i32 0, ptr %75, align 8
  %76 = load ptr, ptr %2, align 8
  %77 = getelementptr inbounds nuw %struct.pg_conn, ptr %76, i32 0, i32 109
  store i32 0, ptr %77, align 4
  %78 = load ptr, ptr %2, align 8
  %79 = getelementptr inbounds nuw %struct.pg_conn, ptr %78, i32 0, i32 131
  store i32 4096, ptr %79, align 8
  %80 = load ptr, ptr %2, align 8
  %81 = getelementptr inbounds nuw %struct.pg_conn, ptr %80, i32 0, i32 110
  store i32 1, ptr %81, align 8
  %82 = load ptr, ptr %2, align 8
  %83 = getelementptr inbounds nuw %struct.pg_conn, ptr %82, i32 0, i32 111
  store i32 1, ptr %83, align 4
  %84 = load ptr, ptr %2, align 8
  %85 = getelementptr inbounds nuw %struct.pg_conn, ptr %84, i32 0, i32 71
  store i32 -1, ptr %85, align 8
  %86 = load ptr, ptr %2, align 8
  %87 = getelementptr inbounds nuw %struct.pg_conn, ptr %86, i32 0, i32 90
  store i32 -1, ptr %87, align 8
  %88 = load ptr, ptr %2, align 8
  %89 = getelementptr inbounds nuw %struct.pg_conn, ptr %88, i32 0, i32 44
  store ptr null, ptr %89, align 8
  %90 = load ptr, ptr %2, align 8
  %91 = getelementptr inbounds nuw %struct.pg_conn, ptr %90, i32 0, i32 115
  store i32 16384, ptr %91, align 8
  %92 = load ptr, ptr %2, align 8
  %93 = getelementptr inbounds nuw %struct.pg_conn, ptr %92, i32 0, i32 115
  %94 = load i32, ptr %93, align 8
  %95 = sext i32 %94 to i64
  %96 = call noalias ptr @malloc(i64 noundef %95) #14
  %97 = load ptr, ptr %2, align 8
  %98 = getelementptr inbounds nuw %struct.pg_conn, ptr %97, i32 0, i32 114
  store ptr %96, ptr %98, align 8
  %99 = load ptr, ptr %2, align 8
  %100 = getelementptr inbounds nuw %struct.pg_conn, ptr %99, i32 0, i32 120
  store i32 16384, ptr %100, align 8
  %101 = load ptr, ptr %2, align 8
  %102 = getelementptr inbounds nuw %struct.pg_conn, ptr %101, i32 0, i32 120
  %103 = load i32, ptr %102, align 8
  %104 = sext i32 %103 to i64
  %105 = call noalias ptr @malloc(i64 noundef %104) #14
  %106 = load ptr, ptr %2, align 8
  %107 = getelementptr inbounds nuw %struct.pg_conn, ptr %106, i32 0, i32 119
  store ptr %105, ptr %107, align 8
  %108 = load ptr, ptr %2, align 8
  %109 = getelementptr inbounds nuw %struct.pg_conn, ptr %108, i32 0, i32 125
  store i32 32, ptr %109, align 8
  %110 = load ptr, ptr %2, align 8
  %111 = getelementptr inbounds nuw %struct.pg_conn, ptr %110, i32 0, i32 125
  %112 = load i32, ptr %111, align 8
  %113 = sext i32 %112 to i64
  %114 = mul i64 %113, 16
  %115 = call noalias ptr @malloc(i64 noundef %114) #14
  %116 = load ptr, ptr %2, align 8
  %117 = getelementptr inbounds nuw %struct.pg_conn, ptr %116, i32 0, i32 124
  store ptr %115, ptr %117, align 8
  %118 = load ptr, ptr %2, align 8
  %119 = getelementptr inbounds nuw %struct.pg_conn, ptr %118, i32 0, i32 140
  call void @initPQExpBuffer(ptr noundef %119)
  %120 = load ptr, ptr %2, align 8
  %121 = getelementptr inbounds nuw %struct.pg_conn, ptr %120, i32 0, i32 142
  call void @initPQExpBuffer(ptr noundef %121)
  %122 = load ptr, ptr %2, align 8
  %123 = getelementptr inbounds nuw %struct.pg_conn, ptr %122, i32 0, i32 114
  %124 = load ptr, ptr %123, align 8
  %125 = icmp eq ptr %124, null
  br i1 %125, label %156, label %126

126:                                              ; preds = %51
  %127 = load ptr, ptr %2, align 8
  %128 = getelementptr inbounds nuw %struct.pg_conn, ptr %127, i32 0, i32 119
  %129 = load ptr, ptr %128, align 8
  %130 = icmp eq ptr %129, null
  br i1 %130, label %156, label %131

131:                                              ; preds = %126
  %132 = load ptr, ptr %2, align 8
  %133 = getelementptr inbounds nuw %struct.pg_conn, ptr %132, i32 0, i32 124
  %134 = load ptr, ptr %133, align 8
  %135 = icmp eq ptr %134, null
  br i1 %135, label %156, label %136

136:                                              ; preds = %131
  %137 = load ptr, ptr %2, align 8
  %138 = getelementptr inbounds nuw %struct.pg_conn, ptr %137, i32 0, i32 140
  %139 = icmp eq ptr %138, null
  br i1 %139, label %156, label %140

140:                                              ; preds = %136
  %141 = load ptr, ptr %2, align 8
  %142 = getelementptr inbounds nuw %struct.pg_conn, ptr %141, i32 0, i32 140
  %143 = getelementptr inbounds nuw %struct.PQExpBufferData, ptr %142, i32 0, i32 2
  %144 = load i64, ptr %143, align 8
  %145 = icmp eq i64 %144, 0
  br i1 %145, label %156, label %146

146:                                              ; preds = %140
  %147 = load ptr, ptr %2, align 8
  %148 = getelementptr inbounds nuw %struct.pg_conn, ptr %147, i32 0, i32 142
  %149 = icmp eq ptr %148, null
  br i1 %149, label %156, label %150

150:                                              ; preds = %146
  %151 = load ptr, ptr %2, align 8
  %152 = getelementptr inbounds nuw %struct.pg_conn, ptr %151, i32 0, i32 142
  %153 = getelementptr inbounds nuw %struct.PQExpBufferData, ptr %152, i32 0, i32 2
  %154 = load i64, ptr %153, align 8
  %155 = icmp eq i64 %154, 0
  br i1 %155, label %156, label %158

156:                                              ; preds = %150, %146, %140, %136, %131, %126, %51
  %157 = load ptr, ptr %2, align 8
  call void @freePGconn(ptr noundef %157)
  store ptr null, ptr %2, align 8
  br label %158

158:                                              ; preds = %156, %150
  %159 = load ptr, ptr %2, align 8
  store ptr %159, ptr %1, align 8
  store i32 1, ptr %3, align 4
  br label %160

160:                                              ; preds = %158, %12
  call void @llvm.lifetime.end.p0(i64 8, ptr %2) #12
  %161 = load ptr, ptr %1, align 8
  ret ptr %161
}