; Function Attrs: nounwind uwtable
define noundef ptr @pqMakeEmptyPGconn() local_unnamed_addr #0 {
  %calloc = tail call dereferenceable_or_null(1176) ptr @calloc(i64 1, i64 1176)
  %1 = icmp eq ptr %calloc, null
  br i1 %1, label %39, label %2

2:                                                ; preds = %0
  %3 = getelementptr inbounds nuw i8, ptr %calloc, i64 368
  store ptr @defaultNoticeReceiver, ptr %3, align 8
  %4 = getelementptr inbounds nuw i8, ptr %calloc, i64 384
  store ptr @defaultNoticeProcessor, ptr %4, align 8
  %5 = getelementptr inbounds nuw i8, ptr %calloc, i64 416
  store i32 1, ptr %5, align 8
  %6 = getelementptr inbounds nuw i8, ptr %calloc, i64 1104
  store i32 4096, ptr %6, align 8
  %7 = getelementptr inbounds nuw i8, ptr %calloc, i64 968
  store i32 1, ptr %7, align 8
  %8 = getelementptr inbounds nuw i8, ptr %calloc, i64 972
  store i32 1, ptr %8, align 4
  %9 = getelementptr inbounds nuw i8, ptr %calloc, i64 520
  store i32 -1, ptr %9, align 8
  %10 = getelementptr inbounds nuw i8, ptr %calloc, i64 864
  store i32 -1, ptr %10, align 8
  %11 = getelementptr inbounds nuw i8, ptr %calloc, i64 1008
  store i32 16384, ptr %11, align 8
  %12 = tail call noalias dereferenceable_or_null(16384) ptr @malloc(i64 noundef 16384) #27
  %13 = getelementptr inbounds nuw i8, ptr %calloc, i64 1000
  store ptr %12, ptr %13, align 8
  %14 = getelementptr inbounds nuw i8, ptr %calloc, i64 1032
  store i32 16384, ptr %14, align 8
  %15 = tail call noalias dereferenceable_or_null(16384) ptr @malloc(i64 noundef 16384) #27
  %16 = getelementptr inbounds nuw i8, ptr %calloc, i64 1024
  store ptr %15, ptr %16, align 8
  %17 = getelementptr inbounds nuw i8, ptr %calloc, i64 1056
  store i32 32, ptr %17, align 8
  %18 = tail call noalias dereferenceable_or_null(512) ptr @malloc(i64 noundef 512) #27
  %19 = getelementptr inbounds nuw i8, ptr %calloc, i64 1048
  store ptr %18, ptr %19, align 8
  %20 = getelementptr inbounds nuw i8, ptr %calloc, i64 1120
  tail call void @initPQExpBuffer(ptr noundef nonnull %20) #25
  %21 = getelementptr inbounds nuw i8, ptr %calloc, i64 1152
  tail call void @initPQExpBuffer(ptr noundef nonnull %21) #25
  %22 = load ptr, ptr %13, align 8
  %23 = icmp eq ptr %22, null
  br i1 %23, label %38, label %24

24:                                               ; preds = %2
  %25 = load ptr, ptr %16, align 8
  %26 = icmp eq ptr %25, null
  br i1 %26, label %38, label %27

27:                                               ; preds = %24
  %28 = load ptr, ptr %19, align 8
  %29 = icmp eq ptr %28, null
  br i1 %29, label %38, label %30

30:                                               ; preds = %27
  %31 = getelementptr inbounds nuw i8, ptr %calloc, i64 1136
  %32 = load i64, ptr %31, align 8
  %33 = icmp eq i64 %32, 0
  br i1 %33, label %38, label %34

34:                                               ; preds = %30
  %35 = getelementptr inbounds nuw i8, ptr %calloc, i64 1168
  %36 = load i64, ptr %35, align 8
  %37 = icmp eq i64 %36, 0
  br i1 %37, label %38, label %39

38:                                               ; preds = %34, %30, %27, %24, %2
  tail call fastcc void @freePGconn(ptr noundef %calloc)
  br label %39

39:                                               ; preds = %34, %38, %0
  %.0 = phi ptr [ null, %0 ], [ null, %38 ], [ %calloc, %34 ]
  ret ptr %.0
}